target datalayout = "e-m:e-p270:32:32-p271:32:32-p272:64:64-i64:64-i128:128-f80:128-n8:16:32:64-S128"
target triple = "x86_64-pc-linux-gnu"

%"class.std::unique_lock" = type <{ ptr, i8, [7 x i8] }>
%"class.std::error_code" = type { i32, ptr }
%"class.boost::fibers::mutex" = type { %"class.boost::fibers::detail::spinlock_ttas", %"class.boost::fibers::wait_queue", ptr }
%"class.boost::fibers::detail::spinlock_ttas" = type { %"struct.std::atomic" }
%"struct.std::atomic" = type { i32 }
%"class.boost::fibers::wait_queue" = type { %"class.boost::intrusive::slist" }
%"class.boost::intrusive::slist" = type { %"class.boost::intrusive::slist_impl" }
%"class.boost::intrusive::slist_impl" = type { %"struct.boost::intrusive::slist_impl<boost::intrusive::mhtraits<boost::fibers::waker_with_hook, boost::intrusive::slist_member_hook<>, &boost::fibers::waker_with_hook::waker_queue_hook_>, unsigned long, 4, void>::data_t" }
%"struct.boost::intrusive::slist_impl<boost::intrusive::mhtraits<boost::fibers::waker_with_hook, boost::intrusive::slist_member_hook<>, &boost::fibers::waker_with_hook::waker_queue_hook_>, unsigned long, 4, void>::data_t" = type { %"struct.boost::intrusive::slist_impl<boost::intrusive::mhtraits<boost::fibers::waker_with_hook, boost::intrusive::slist_member_hook<>, &boost::fibers::waker_with_hook::waker_queue_hook_>, unsigned long, 4, void>::root_plus_size" }
%"struct.boost::intrusive::slist_impl<boost::intrusive::mhtraits<boost::fibers::waker_with_hook, boost::intrusive::slist_member_hook<>, &boost::fibers::waker_with_hook::waker_queue_hook_>, unsigned long, 4, void>::root_plus_size" = type { %"struct.boost::intrusive::header_holder_plus_last" }
%"struct.boost::intrusive::header_holder_plus_last" = type { %"struct.boost::intrusive::detail::default_header_holder", ptr }
%"struct.boost::intrusive::detail::default_header_holder" = type { %"struct.boost::intrusive::slist_node" }
%"struct.boost::intrusive::slist_node" = type { ptr }

@.str = private unnamed_addr constant [36 x i8] c"boost fiber: a deadlock is detected\00", align 1
@_ZTIN5boost6fibers10lock_errorE = linkonce_odr hidden constant { ptr, ptr, ptr } { ptr getelementptr inbounds (ptr, ptr @_ZTVN10__cxxabiv120__si_class_type_infoE, i64 2), ptr @_ZTSN5boost6fibers10lock_errorE, ptr @_ZTIN5boost6fibers11fiber_errorE }, comdat, align 8
@_ZTVN5boost6fibers10lock_errorE = linkonce_odr hidden unnamed_addr constant { [5 x ptr] } { [5 x ptr] [ptr null, ptr @_ZTIN5boost6fibers10lock_errorE, ptr @_ZNSt12system_errorD2Ev, ptr @_ZN5boost6fibers10lock_errorD0Ev, ptr @_ZNKSt13runtime_error4whatEv] }, comdat, align 8
@_ZTVN5boost6fibers11fiber_errorE = linkonce_odr hidden unnamed_addr constant { [5 x ptr] } { [5 x ptr] [ptr null, ptr @_ZTIN5boost6fibers11fiber_errorE, ptr @_ZNSt12system_errorD2Ev, ptr @_ZN5boost6fibers11fiber_errorD0Ev, ptr @_ZNKSt13runtime_error4whatEv] }, comdat, align 8

; Function Attrs: mustprogress nounwind uwtable
define linkonce_odr hidden void @_ZNSt6atomicIN5boost6fibers6detail15spinlock_statusEE5storeES3_St12memory_order(ptr noundef nonnull align 4 dereferenceable(4) %0, i32 noundef %1, i32 noundef %2) #8 comdat align 2 {
  %4 = alloca ptr, align 8
  %5 = alloca i32, align 4
  %6 = alloca i32, align 4
  store ptr %0, ptr %4, align 8, !tbaa !3
  store i32 %1, ptr %5, align 4, !tbaa !55
  store i32 %2, ptr %6, align 4, !tbaa !53
  %7 = load ptr, ptr %4, align 8
  %8 = getelementptr inbounds nuw %"struct.std::atomic", ptr %7, i32 0, i32 0
  %9 = load i32, ptr %6, align 4, !tbaa !53
  switch i32 %9, label %10 [
    i32 3, label %12
    i32 5, label %14
  ]

10:                                               ; preds = %3
  %11 = load i32, ptr %5, align 4
  store atomic i32 %11, ptr %8 monotonic, align 4
  br label %16

12:                                               ; preds = %3
  %13 = load i32, ptr %5, align 4
  store atomic i32 %13, ptr %8 release, align 4
  br label %16

14:                                               ; preds = %3
  %15 = load i32, ptr %5, align 4
  store atomic i32 %15, ptr %8 seq_cst, align 4
  br label %16

16:                                               ; preds = %14, %12, %10
  ret void
}

; Function Attrs: noinline noreturn nounwind uwtable
define linkonce_odr hidden void @__clang_call_terminate(ptr noundef %0) #13 comdat {
  %2 = call ptr @__cxa_begin_catch(ptr %0) #3
  call void @_ZSt9terminatev() #19
  unreachable
}

; Function Attrs: mustprogress nounwind uwtable
define linkonce_odr hidden void @_ZN5boost6fibers6detail13spinlock_ttas6unlockEv(ptr noundef nonnull align 4 dereferenceable(4) %0) #8 comdat align 2 {
  %2 = alloca ptr, align 8
  store ptr %0, ptr %2, align 8, !tbaa !3
  %3 = load ptr, ptr %2, align 8
  %4 = getelementptr inbounds nuw %"class.boost::fibers::detail::spinlock_ttas", ptr %3, i32 0, i32 0
  call void @_ZNSt6atomicIN5boost6fibers6detail15spinlock_statusEE5storeES3_St12memory_order(ptr noundef nonnull align 4 dereferenceable(4) %4, i32 noundef 1, i32 noundef 3) #3
  ret void
}

; Function Attrs: mustprogress uwtable
define linkonce_odr hidden void @_ZN5boost6fibers11fiber_errorC2ESt10error_codePKc(ptr noundef nonnull align 8 dereferenceable(32) %0, i32 %1, ptr %2, ptr noundef %3) unnamed_addr #4 comdat align 2 {
  %5 = alloca %"class.std::error_code", align 8
  %6 = alloca ptr, align 8
  %7 = alloca ptr, align 8
  %8 = alloca %"class.std::error_code", align 8
  %9 = getelementptr inbounds nuw { i32, ptr }, ptr %5, i32 0, i32 0
  store i32 %1, ptr %9, align 8
  %10 = getelementptr inbounds nuw { i32, ptr }, ptr %5, i32 0, i32 1
  store ptr %2, ptr %10, align 8
  store ptr %0, ptr %6, align 8, !tbaa !3
  store ptr %3, ptr %7, align 8, !tbaa !3
  %11 = load ptr, ptr %6, align 8
  call void @llvm.memcpy.p0.p0.i64(ptr align 8 %8, ptr align 8 %5, i64 16, i1 false), !tbaa.struct !28
  %12 = load ptr, ptr %7, align 8, !tbaa !3
  %13 = getelementptr inbounds nuw { i32, ptr }, ptr %8, i32 0, i32 0
  %14 = load i32, ptr %13, align 8
  %15 = getelementptr inbounds nuw { i32, ptr }, ptr %8, i32 0, i32 1
  %16 = load ptr, ptr %15, align 8
  call void @_ZNSt12system_errorC2ESt10error_codePKc(ptr noundef nonnull align 8 dereferenceable(32) %11, i32 %14, ptr %16, ptr noundef %12)
  store ptr getelementptr inbounds inrange(-16, 24) ({ [5 x ptr] }, ptr @_ZTVN5boost6fibers11fiber_errorE, i32 0, i32 0, i32 2), ptr %11, align 8, !tbaa !31
  ret void
}

; Function Attrs: mustprogress nounwind uwtable
define linkonce_odr hidden void @_ZNSt10error_codeC2EiRKNSt3_V214error_categoryE(ptr noundef nonnull align 8 dereferenceable(16) %0, i32 noundef %1, ptr noundef nonnull align 8 dereferenceable(8) %2) unnamed_addr #8 comdat align 2 {
  %4 = alloca ptr, align 8
  %5 = alloca i32, align 4
  %6 = alloca ptr, align 8
  store ptr %0, ptr %4, align 8, !tbaa !3
  store i32 %1, ptr %5, align 4, !tbaa !29
  store ptr %2, ptr %6, align 8, !tbaa !3
  %7 = load ptr, ptr %4, align 8
  %8 = getelementptr inbounds nuw %"class.std::error_code", ptr %7, i32 0, i32 0
  %9 = load i32, ptr %5, align 4, !tbaa !29
  store i32 %9, ptr %8, align 8, !tbaa !35
  %10 = getelementptr inbounds nuw %"class.std::error_code", ptr %7, i32 0, i32 1
  %11 = load ptr, ptr %6, align 8, !tbaa !3
  store ptr %11, ptr %10, align 8, !tbaa !37
  ret void
}

; Function Attrs: mustprogress uwtable
define linkonce_odr hidden void @_ZNSt11unique_lockIN5boost6fibers6detail13spinlock_ttasEE4lockEv(ptr noundef nonnull align 8 dereferenceable(9) %0) #4 comdat align 2 {
  %2 = alloca ptr, align 8
  store ptr %0, ptr %2, align 8, !tbaa !3
  %3 = load ptr, ptr %2, align 8
  %4 = getelementptr inbounds nuw %"class.std::unique_lock", ptr %3, i32 0, i32 0
  %5 = load ptr, ptr %4, align 8, !tbaa !22
  %6 = icmp ne ptr %5, null
  br i1 %6, label %8, label %7

7:                                                ; preds = %1
  call void @_ZSt20__throw_system_errori(i32 noundef 1) #17
  unreachable

8:                                                ; preds = %1
  %9 = getelementptr inbounds nuw %"class.std::unique_lock", ptr %3, i32 0, i32 1
  %10 = load i8, ptr %9, align 8, !tbaa !25, !range !33, !noundef !34
  %11 = trunc i8 %10 to i1
  br i1 %11, label %12, label %13

12:                                               ; preds = %8
  call void @_ZSt20__throw_system_errori(i32 noundef 35) #17
  unreachable

13:                                               ; preds = %8
  %14 = getelementptr inbounds nuw %"class.std::unique_lock", ptr %3, i32 0, i32 0
  %15 = load ptr, ptr %14, align 8, !tbaa !22
  call void @_ZN5boost6fibers6detail13spinlock_ttas4lockEv(ptr noundef nonnull align 4 dereferenceable(4) %15) #3
  %16 = getelementptr inbounds nuw %"class.std::unique_lock", ptr %3, i32 0, i32 1
  store i8 1, ptr %16, align 8, !tbaa !25
  br label %17

17:                                               ; preds = %13
  br label %18

18:                                               ; preds = %17
  ret void
}

; Function Attrs: mustprogress nounwind uwtable
define linkonce_odr hidden void @_ZNSt11unique_lockIN5boost6fibers6detail13spinlock_ttasEED2Ev(ptr noundef nonnull align 8 dereferenceable(9) %0) unnamed_addr #8 comdat align 2 personality ptr @__gxx_personality_v0 {
  %2 = alloca ptr, align 8
  store ptr %0, ptr %2, align 8, !tbaa !3
  %3 = load ptr, ptr %2, align 8
  %4 = getelementptr inbounds nuw %"class.std::unique_lock", ptr %3, i32 0, i32 1
  %5 = load i8, ptr %4, align 8, !tbaa !25, !range !33, !noundef !34
  %6 = trunc i8 %5 to i1
  br i1 %6, label %7, label %9

7:                                                ; preds = %1
  invoke void @_ZNSt11unique_lockIN5boost6fibers6detail13spinlock_ttasEE6unlockEv(ptr noundef nonnull align 8 dereferenceable(9) %3)
          to label %8 unwind label %10

8:                                                ; preds = %7
  br label %9

9:                                                ; preds = %8, %1
  ret void

10:                                               ; preds = %7
  %11 = landingpad { ptr, i32 }
          catch ptr null
  %12 = extractvalue { ptr, i32 } %11, 0
  call void @__clang_call_terminate(ptr %12) #19
  unreachable
}

; Function Attrs: mustprogress uwtable
define linkonce_odr hidden void @_ZNSt11unique_lockIN5boost6fibers6detail13spinlock_ttasEE6unlockEv(ptr noundef nonnull align 8 dereferenceable(9) %0) #4 comdat align 2 {
  %2 = alloca ptr, align 8
  store ptr %0, ptr %2, align 8, !tbaa !3
  %3 = load ptr, ptr %2, align 8
  %4 = getelementptr inbounds nuw %"class.std::unique_lock", ptr %3, i32 0, i32 1
  %5 = load i8, ptr %4, align 8, !tbaa !25, !range !33, !noundef !34
  %6 = trunc i8 %5 to i1
  br i1 %6, label %8, label %7

7:                                                ; preds = %1
  call void @_ZSt20__throw_system_errori(i32 noundef 1) #17
  unreachable

8:                                                ; preds = %1
  %9 = getelementptr inbounds nuw %"class.std::unique_lock", ptr %3, i32 0, i32 0
  %10 = load ptr, ptr %9, align 8, !tbaa !22
  %11 = icmp ne ptr %10, null
  br i1 %11, label %12, label %16

12:                                               ; preds = %8
  %13 = getelementptr inbounds nuw %"class.std::unique_lock", ptr %3, i32 0, i32 0
  %14 = load ptr, ptr %13, align 8, !tbaa !22
  call void @_ZN5boost6fibers6detail13spinlock_ttas6unlockEv(ptr noundef nonnull align 4 dereferenceable(4) %14) #3
  %15 = getelementptr inbounds nuw %"class.std::unique_lock", ptr %3, i32 0, i32 1
  store i8 0, ptr %15, align 8, !tbaa !25
  br label %16

16:                                               ; preds = %12, %8
  br label %17

17:                                               ; preds = %16
  ret void
}

; Function Attrs: mustprogress uwtable
define linkonce_odr hidden void @_ZN5boost6fibers10lock_errorC2ESt10error_codePKc(ptr noundef nonnull align 8 dereferenceable(32) %0, i32 %1, ptr %2, ptr noundef %3) unnamed_addr #4 comdat align 2 {
  %5 = alloca %"class.std::error_code", align 8
  %6 = alloca ptr, align 8
  %7 = alloca ptr, align 8
  %8 = alloca %"class.std::error_code", align 8
  %9 = getelementptr inbounds nuw { i32, ptr }, ptr %5, i32 0, i32 0
  store i32 %1, ptr %9, align 8
  %10 = getelementptr inbounds nuw { i32, ptr }, ptr %5, i32 0, i32 1
  store ptr %2, ptr %10, align 8
  store ptr %0, ptr %6, align 8, !tbaa !3
  store ptr %3, ptr %7, align 8, !tbaa !3
  %11 = load ptr, ptr %6, align 8
  call void @llvm.memcpy.p0.p0.i64(ptr align 8 %8, ptr align 8 %5, i64 16, i1 false), !tbaa.struct !28
  %12 = load ptr, ptr %7, align 8, !tbaa !3
  %13 = getelementptr inbounds nuw { i32, ptr }, ptr %8, i32 0, i32 0
  %14 = load i32, ptr %13, align 8
  %15 = getelementptr inbounds nuw { i32, ptr }, ptr %8, i32 0, i32 1
  %16 = load ptr, ptr %15, align 8
  call void @_ZN5boost6fibers11fiber_errorC2ESt10error_codePKc(ptr noundef nonnull align 8 dereferenceable(32) %11, i32 %14, ptr %16, ptr noundef %12)
  store ptr getelementptr inbounds inrange(-16, 24) ({ [5 x ptr] }, ptr @_ZTVN5boost6fibers10lock_errorE, i32 0, i32 0, i32 2), ptr %11, align 8, !tbaa !31
  ret void
}

; Function Attrs: inlinehint mustprogress nounwind uwtable
define linkonce_odr { i32, ptr } @_ZSt15make_error_codeSt4errc(i32 noundef %0) #7 comdat {
  %2 = alloca %"class.std::error_code", align 8
  %3 = alloca i32, align 4
  store i32 %0, ptr %3, align 4, !tbaa !26
  %4 = load i32, ptr %3, align 4, !tbaa !26
  %5 = call noundef nonnull align 8 dereferenceable(8) ptr @_ZNSt3_V216generic_categoryEv() #18
  call void @_ZNSt10error_codeC2EiRKNSt3_V214error_categoryE(ptr noundef nonnull align 8 dereferenceable(16) %2, i32 noundef %4, ptr noundef nonnull align 8 dereferenceable(8) %5) #3
  %6 = load { i32, ptr }, ptr %2, align 8
  ret { i32, ptr } %6
}

; Function Attrs: mustprogress uwtable
define linkonce_odr hidden void @_ZNSt11unique_lockIN5boost6fibers6detail13spinlock_ttasEEC2ERS3_(ptr noundef nonnull align 8 dereferenceable(9) %0, ptr noundef nonnull align 4 dereferenceable(4) %1) unnamed_addr #4 comdat align 2 {
  %3 = alloca ptr, align 8
  %4 = alloca ptr, align 8
  store ptr %0, ptr %3, align 8, !tbaa !3
  store ptr %1, ptr %4, align 8, !tbaa !3
  %5 = load ptr, ptr %3, align 8
  %6 = getelementptr inbounds nuw %"class.std::unique_lock", ptr %5, i32 0, i32 0
  %7 = load ptr, ptr %4, align 8, !tbaa !3
  store ptr %7, ptr %6, align 8, !tbaa !22
  %8 = getelementptr inbounds nuw %"class.std::unique_lock", ptr %5, i32 0, i32 1
  store i8 0, ptr %8, align 8, !tbaa !25
  call void @_ZNSt11unique_lockIN5boost6fibers6detail13spinlock_ttasEE4lockEv(ptr noundef nonnull align 8 dereferenceable(9) %5)
  %9 = getelementptr inbounds nuw %"class.std::unique_lock", ptr %5, i32 0, i32 1
  store i8 1, ptr %9, align 8, !tbaa !25
  ret void
}

; Function Attrs: mustprogress uwtable
define noundef zeroext i1 @_ZN5boost6fibers5mutex8try_lockEv(ptr noundef nonnull align 8 dereferenceable(32) %0) #4 align 2 personality ptr @__gxx_personality_v0 {
  %2 = alloca ptr, align 8
  %3 = alloca ptr, align 8
  %4 = alloca %"class.std::unique_lock", align 8
  %5 = alloca %"class.std::error_code", align 8
  %6 = alloca ptr, align 8
  %7 = alloca i32, align 4
  store ptr %0, ptr %2, align 8, !tbaa !3
  %8 = load ptr, ptr %2, align 8
  call void @llvm.lifetime.start.p0(i64 8, ptr %3) #3
  %9 = call noundef ptr @_ZN5boost6fibers7context6activeEv() #3
  store ptr %9, ptr %3, align 8, !tbaa !3
  call void @llvm.lifetime.start.p0(i64 16, ptr %4) #3
  %10 = getelementptr inbounds nuw %"class.boost::fibers::mutex", ptr %8, i32 0, i32 0
  call void @_ZNSt11unique_lockIN5boost6fibers6detail13spinlock_ttasEEC2ERS3_(ptr noundef nonnull align 8 dereferenceable(9) %4, ptr noundef nonnull align 4 dereferenceable(4) %10)
  %11 = load ptr, ptr %3, align 8, !tbaa !3
  %12 = getelementptr inbounds nuw %"class.boost::fibers::mutex", ptr %8, i32 0, i32 2
  %13 = load ptr, ptr %12, align 8, !tbaa !7
  %14 = icmp eq ptr %11, %13
  %15 = zext i1 %14 to i64
  %16 = call i64 @llvm.expect.i64(i64 %15, i64 0)
  %17 = icmp ne i64 %16, 0
  br i1 %17, label %18, label %38

18:                                               ; preds = %1
  %19 = call ptr @__cxa_allocate_exception(i64 32) #3
  %20 = call { i32, ptr } @_ZSt15make_error_codeSt4errc(i32 noundef 35) #3
  %21 = getelementptr inbounds nuw { i32, ptr }, ptr %5, i32 0, i32 0
  %22 = extractvalue { i32, ptr } %20, 0
  store i32 %22, ptr %21, align 8
  %23 = getelementptr inbounds nuw { i32, ptr }, ptr %5, i32 0, i32 1
  %24 = extractvalue { i32, ptr } %20, 1
  store ptr %24, ptr %23, align 8
  %25 = getelementptr inbounds nuw { i32, ptr }, ptr %5, i32 0, i32 0
  %26 = load i32, ptr %25, align 8
  %27 = getelementptr inbounds nuw { i32, ptr }, ptr %5, i32 0, i32 1
  %28 = load ptr, ptr %27, align 8
  invoke void @_ZN5boost6fibers10lock_errorC2ESt10error_codePKc(ptr noundef nonnull align 8 dereferenceable(32) %19, i32 %26, ptr %28, ptr noundef @.str)
          to label %29 unwind label %30

29:                                               ; preds = %18
  invoke void @__cxa_throw(ptr %19, ptr @_ZTIN5boost6fibers10lock_errorE, ptr @_ZNSt12system_errorD2Ev) #17
          to label %58 unwind label %34

30:                                               ; preds = %18
  %31 = landingpad { ptr, i32 }
          cleanup
  %32 = extractvalue { ptr, i32 } %31, 0
  store ptr %32, ptr %6, align 8
  %33 = extractvalue { ptr, i32 } %31, 1
  store i32 %33, ptr %7, align 4
  call void @__cxa_free_exception(ptr %19) #3
  br label %52

34:                                               ; preds = %45, %29
  %35 = landingpad { ptr, i32 }
          cleanup
  %36 = extractvalue { ptr, i32 } %35, 0
  store ptr %36, ptr %6, align 8
  %37 = extractvalue { ptr, i32 } %35, 1
  store i32 %37, ptr %7, align 4
  br label %52

38:                                               ; preds = %1
  %39 = getelementptr inbounds nuw %"class.boost::fibers::mutex", ptr %8, i32 0, i32 2
  %40 = load ptr, ptr %39, align 8, !tbaa !7
  %41 = icmp eq ptr null, %40
  br i1 %41, label %42, label %45

42:                                               ; preds = %38
  %43 = load ptr, ptr %3, align 8, !tbaa !3
  %44 = getelementptr inbounds nuw %"class.boost::fibers::mutex", ptr %8, i32 0, i32 2
  store ptr %43, ptr %44, align 8, !tbaa !7
  br label %45

45:                                               ; preds = %42, %38
  invoke void @_ZNSt11unique_lockIN5boost6fibers6detail13spinlock_ttasEE6unlockEv(ptr noundef nonnull align 8 dereferenceable(9) %4)
          to label %46 unwind label %34

46:                                               ; preds = %45
  %47 = load ptr, ptr %3, align 8, !tbaa !3
  call void @_ZN5boost6fibers7context5yieldEv(ptr noundef nonnull align 8 dereferenceable(232) %47) #3
  %48 = load ptr, ptr %3, align 8, !tbaa !3
  %49 = getelementptr inbounds nuw %"class.boost::fibers::mutex", ptr %8, i32 0, i32 2
  %50 = load ptr, ptr %49, align 8, !tbaa !7
  %51 = icmp eq ptr %48, %50
  call void @_ZNSt11unique_lockIN5boost6fibers6detail13spinlock_ttasEED2Ev(ptr noundef nonnull align 8 dereferenceable(9) %4) #3
  call void @llvm.lifetime.end.p0(i64 16, ptr %4) #3
  call void @llvm.lifetime.end.p0(i64 8, ptr %3) #3
  ret i1 %51

52:                                               ; preds = %34, %30
  call void @_ZNSt11unique_lockIN5boost6fibers6detail13spinlock_ttasEED2Ev(ptr noundef nonnull align 8 dereferenceable(9) %4) #3
  call void @llvm.lifetime.end.p0(i64 16, ptr %4) #3
  call void @llvm.lifetime.end.p0(i64 8, ptr %3) #3
  br label %53

53:                                               ; preds = %52
  %54 = load ptr, ptr %6, align 8
  %55 = load i32, ptr %7, align 4
  %56 = insertvalue { ptr, i32 } poison, ptr %54, 0
  %57 = insertvalue { ptr, i32 } %56, i32 %55, 1
  resume { ptr, i32 } %57

58:                                               ; preds = %29
  unreachable
}