; Function Attrs: mustprogress uwtable
define noundef zeroext i1 @_ZN5boost6fibers5mutex8try_lockEv(ptr noundef nonnull align 8 dereferenceable(32) %0) local_unnamed_addr #3 align 2 personality ptr @__gxx_personality_v0 {
  %2 = tail call noundef ptr @_ZN5boost6fibers7context6activeEv() #19
  tail call void @_ZN5boost6fibers6detail13spinlock_ttas4lockEv(ptr noundef nonnull align 4 dereferenceable(4) %0) #19
  %3 = getelementptr inbounds nuw i8, ptr %0, i64 24
  %4 = load ptr, ptr %3, align 8, !tbaa !10
  %5 = icmp eq ptr %2, %4
  br i1 %5, label %6, label %14, !prof !23

6:                                                ; preds = %1
  %7 = tail call ptr @__cxa_allocate_exception(i64 32) #19
  %8 = tail call noundef nonnull align 8 dereferenceable(8) ptr @_ZNSt3_V216generic_categoryEv() #20
  invoke void @_ZNSt12system_errorC2ESt10error_codePKc(ptr noundef nonnull align 8 dereferenceable(32) %7, i32 35, ptr nonnull %8, ptr noundef nonnull @.str)
          to label %9 unwind label %10

9:                                                ; preds = %6
  store ptr getelementptr inbounds inrange(-16, 24) (i8, ptr @_ZTVN5boost6fibers10lock_errorE, i64 16), ptr %7, align 8, !tbaa !24
  invoke void @__cxa_throw(ptr nonnull %7, ptr nonnull @_ZTIN5boost6fibers10lock_errorE, ptr nonnull @_ZNSt12system_errorD2Ev) #21
          to label %19 unwind label %12

10:                                               ; preds = %6
  %11 = landingpad { ptr, i32 }
          cleanup
  tail call void @__cxa_free_exception(ptr %7) #19
  br label %_ZNSt11unique_lockIN5boost6fibers6detail13spinlock_ttasEED2Ev.exit11

12:                                               ; preds = %9
  %13 = landingpad { ptr, i32 }
          cleanup
  br label %_ZNSt11unique_lockIN5boost6fibers6detail13spinlock_ttasEED2Ev.exit11

14:                                               ; preds = %1
  %15 = icmp eq ptr %4, null
  br i1 %15, label %16, label %_ZNSt11unique_lockIN5boost6fibers6detail13spinlock_ttasEED2Ev.exit

16:                                               ; preds = %14
  store ptr %2, ptr %3, align 8, !tbaa !10
  br label %_ZNSt11unique_lockIN5boost6fibers6detail13spinlock_ttasEED2Ev.exit

_ZNSt11unique_lockIN5boost6fibers6detail13spinlock_ttasEED2Ev.exit: ; preds = %14, %16
  store atomic i32 1, ptr %0 release, align 8
  tail call void @_ZN5boost6fibers7context5yieldEv(ptr noundef nonnull align 8 dereferenceable(232) %2) #19
  %17 = load ptr, ptr %3, align 8, !tbaa !10
  %18 = icmp eq ptr %2, %17
  ret i1 %18

_ZNSt11unique_lockIN5boost6fibers6detail13spinlock_ttasEED2Ev.exit11: ; preds = %10, %12
  %.pn = phi { ptr, i32 } [ %13, %12 ], [ %11, %10 ]
  store atomic i32 1, ptr %0 release, align 8
  resume { ptr, i32 } %.pn

19:                                               ; preds = %9
  unreachable
}